target datalayout = "e-m:e-p270:32:32-p271:32:32-p272:64:64-i64:64-i128:128-f80:128-n8:16:32:64-S128"
target triple = "x86_64-pc-linux-gnu"

@H5T_init_g = external global i8, align 1
@H5_libterm_g = external global i8, align 1

; Function Attrs: nounwind uwtable
define void @H5T__bit_neg(ptr noundef %0, i64 noundef %1, i64 noundef %2) #0 {
  %4 = alloca ptr, align 8
  %5 = alloca i64, align 8
  %6 = alloca i64, align 8
  %7 = alloca i64, align 8
  %8 = alloca i64, align 8
  %9 = alloca [1 x i8], align 1
  store ptr %0, ptr %4, align 8, !tbaa !3
  store i64 %1, ptr %5, align 8, !tbaa !8
  store i64 %2, ptr %6, align 8, !tbaa !8
  call void @llvm.lifetime.start.p0(i64 8, ptr %7) #4
  %10 = load i64, ptr %5, align 8, !tbaa !8
  %11 = udiv i64 %10, 8
  store i64 %11, ptr %7, align 8, !tbaa !8
  call void @llvm.lifetime.start.p0(i64 8, ptr %8) #4
  %12 = load i64, ptr %5, align 8, !tbaa !8
  %13 = urem i64 %12, 8
  store i64 %13, ptr %8, align 8, !tbaa !8
  call void @llvm.lifetime.start.p0(i64 1, ptr %9) #4
  %14 = load i8, ptr @H5T_init_g, align 1, !tbaa !10, !range !12, !noundef !13
  %15 = trunc i8 %14 to i1
  br i1 %15, label %20, label %16

16:                                               ; preds = %3
  %17 = load i8, ptr @H5_libterm_g, align 1, !tbaa !10, !range !12, !noundef !13
  %18 = trunc i8 %17 to i1
  %19 = xor i1 %18, true
  br label %20

20:                                               ; preds = %16, %3
  %21 = phi i1 [ true, %3 ], [ %19, %16 ]
  %22 = xor i1 %21, true
  %23 = xor i1 %22, true
  %24 = zext i1 %23 to i32
  %25 = sext i32 %24 to i64
  %26 = call i64 @llvm.expect.i64(i64 %25, i64 1)
  %27 = icmp ne i64 %26, 0
  br i1 %27, label %28, label %104

28:                                               ; preds = %20
  %29 = load ptr, ptr %4, align 8, !tbaa !3
  %30 = load i64, ptr %7, align 8, !tbaa !8
  %31 = getelementptr inbounds nuw i8, ptr %29, i64 %30
  %32 = load i8, ptr %31, align 1, !tbaa !14
  %33 = zext i8 %32 to i32
  %34 = xor i32 %33, -1
  %35 = trunc i32 %34 to i8
  %36 = getelementptr inbounds [1 x i8], ptr %9, i64 0, i64 0
  store i8 %35, ptr %36, align 1, !tbaa !14
  %37 = load i64, ptr %6, align 8, !tbaa !8
  %38 = load i64, ptr %5, align 8, !tbaa !8
  %39 = add i64 %37, %38
  %40 = sub i64 %39, 1
  %41 = udiv i64 %40, 8
  %42 = load i64, ptr %7, align 8, !tbaa !8
  %43 = icmp ugt i64 %41, %42
  br i1 %43, label %44, label %95

44:                                               ; preds = %28
  %45 = load ptr, ptr %4, align 8, !tbaa !3
  %46 = load i64, ptr %7, align 8, !tbaa !8
  %47 = getelementptr inbounds nuw i8, ptr %45, i64 %46
  %48 = load i64, ptr %8, align 8, !tbaa !8
  %49 = getelementptr inbounds [1 x i8], ptr %9, i64 0, i64 0
  %50 = load i64, ptr %8, align 8, !tbaa !8
  %51 = load i64, ptr %8, align 8, !tbaa !8
  %52 = sub i64 8, %51
  call void @H5T__bit_copy(ptr noundef %47, i64 noundef %48, ptr noundef %49, i64 noundef %50, i64 noundef %52)
  %53 = load i64, ptr %7, align 8, !tbaa !8
  %54 = add i64 %53, 1
  store i64 %54, ptr %7, align 8, !tbaa !8
  %55 = load i64, ptr %8, align 8, !tbaa !8
  %56 = sub i64 8, %55
  %57 = load i64, ptr %6, align 8, !tbaa !8
  %58 = sub i64 %57, %56
  store i64 %58, ptr %6, align 8, !tbaa !8
  br label %59

59:                                               ; preds = %62, %44
  %60 = load i64, ptr %6, align 8, !tbaa !8
  %61 = icmp uge i64 %60, 8
  br i1 %61, label %62, label %77

62:                                               ; preds = %59
  %63 = load ptr, ptr %4, align 8, !tbaa !3
  %64 = load i64, ptr %7, align 8, !tbaa !8
  %65 = getelementptr inbounds nuw i8, ptr %63, i64 %64
  %66 = load i8, ptr %65, align 1, !tbaa !14
  %67 = zext i8 %66 to i32
  %68 = xor i32 %67, -1
  %69 = trunc i32 %68 to i8
  %70 = load ptr, ptr %4, align 8, !tbaa !3
  %71 = load i64, ptr %7, align 8, !tbaa !8
  %72 = getelementptr inbounds nuw i8, ptr %70, i64 %71
  store i8 %69, ptr %72, align 1, !tbaa !14
  %73 = load i64, ptr %7, align 8, !tbaa !8
  %74 = add i64 %73, 1
  store i64 %74, ptr %7, align 8, !tbaa !8
  %75 = load i64, ptr %6, align 8, !tbaa !8
  %76 = sub i64 %75, 8
  store i64 %76, ptr %6, align 8, !tbaa !8
  br label %59, !llvm.loop !36

77:                                               ; preds = %59
  %78 = load i64, ptr %6, align 8, !tbaa !8
  %79 = icmp ugt i64 %78, 0
  br i1 %79, label %80, label %94

80:                                               ; preds = %77
  %81 = load ptr, ptr %4, align 8, !tbaa !3
  %82 = load i64, ptr %7, align 8, !tbaa !8
  %83 = getelementptr inbounds nuw i8, ptr %81, i64 %82
  %84 = load i8, ptr %83, align 1, !tbaa !14
  %85 = zext i8 %84 to i32
  %86 = xor i32 %85, -1
  %87 = trunc i32 %86 to i8
  %88 = getelementptr inbounds [1 x i8], ptr %9, i64 0, i64 0
  store i8 %87, ptr %88, align 1, !tbaa !14
  %89 = load ptr, ptr %4, align 8, !tbaa !3
  %90 = load i64, ptr %7, align 8, !tbaa !8
  %91 = getelementptr inbounds nuw i8, ptr %89, i64 %90
  %92 = getelementptr inbounds [1 x i8], ptr %9, i64 0, i64 0
  %93 = load i64, ptr %6, align 8, !tbaa !8
  call void @H5T__bit_copy(ptr noundef %91, i64 noundef 0, ptr noundef %92, i64 noundef 0, i64 noundef %93)
  br label %94

94:                                               ; preds = %80, %77
  br label %103

95:                                               ; preds = %28
  %96 = load ptr, ptr %4, align 8, !tbaa !3
  %97 = load i64, ptr %7, align 8, !tbaa !8
  %98 = getelementptr inbounds nuw i8, ptr %96, i64 %97
  %99 = load i64, ptr %8, align 8, !tbaa !8
  %100 = getelementptr inbounds [1 x i8], ptr %9, i64 0, i64 0
  %101 = load i64, ptr %8, align 8, !tbaa !8
  %102 = load i64, ptr %6, align 8, !tbaa !8
  call void @H5T__bit_copy(ptr noundef %98, i64 noundef %99, ptr noundef %100, i64 noundef %101, i64 noundef %102)
  br label %103

103:                                              ; preds = %95, %94
  br label %104

104:                                              ; preds = %103, %20
  call void @llvm.lifetime.end.p0(i64 1, ptr %9) #4
  call void @llvm.lifetime.end.p0(i64 8, ptr %8) #4
  call void @llvm.lifetime.end.p0(i64 8, ptr %7) #4
  ret void
}