; Function Attrs: nofree norecurse nosync nounwind memory(read, argmem: readwrite, inaccessiblemem: none) uwtable
define void @H5T__bit_neg(ptr noundef captures(none) %0, i64 noundef %1, i64 noundef %2) local_unnamed_addr #0 {
  %4 = alloca [1 x i8], align 1
  %5 = lshr i64 %1, 3
  %6 = and i64 %1, 7
  call void @llvm.lifetime.start.p0(i64 1, ptr nonnull %4) #7
  %7 = load i8, ptr @H5T_init_g, align 1, !tbaa !3, !range !7, !noundef !8
  %8 = trunc nuw i8 %7 to i1
  %9 = load i8, ptr @H5_libterm_g, align 1, !range !7
  %10 = trunc nuw i8 %9 to i1
  %11 = xor i1 %10, true
  %12 = select i1 %8, i1 true, i1 %11
  br i1 %12, label %13, label %35, !prof !9

13:                                               ; preds = %3
  %14 = getelementptr inbounds nuw i8, ptr %0, i64 %5
  %15 = load i8, ptr %14, align 1, !tbaa !10
  %16 = xor i8 %15, -1
  store i8 %16, ptr %4, align 1, !tbaa !10
  %17 = add i64 %1, -1
  %18 = add i64 %17, %2
  %19 = lshr i64 %18, 3
  %20 = icmp samesign ugt i64 %19, %5
  br i1 %20, label %21, label %34

21:                                               ; preds = %13
  %22 = sub nuw nsw i64 8, %6
  call void @H5T__bit_copy(ptr noundef nonnull %14, i64 noundef %6, ptr noundef nonnull %4, i64 noundef %6, i64 noundef %22)
  %23 = sub i64 %2, %22
  %.03234 = add nuw nsw i64 %5, 1
  %24 = icmp ugt i64 %23, 7
  br i1 %24, label %.lr.ph, label %._crit_edge

.lr.ph:                                           ; preds = %21, %.lr.ph
  %.03236 = phi i64 [ %.032, %.lr.ph ], [ %.03234, %21 ]
  %.035 = phi i64 [ %28, %.lr.ph ], [ %23, %21 ]
  %25 = getelementptr inbounds nuw i8, ptr %0, i64 %.03236
  %26 = load i8, ptr %25, align 1, !tbaa !10
  %27 = xor i8 %26, -1
  store i8 %27, ptr %25, align 1, !tbaa !10
  %28 = add i64 %.035, -8
  %.032 = add nuw nsw i64 %.03236, 1
  %29 = icmp ugt i64 %28, 7
  br i1 %29, label %.lr.ph, label %._crit_edge, !llvm.loop !33

._crit_edge:                                      ; preds = %.lr.ph, %21
  %.0.lcssa = phi i64 [ %23, %21 ], [ %28, %.lr.ph ]
  %.032.lcssa = phi i64 [ %.03234, %21 ], [ %.032, %.lr.ph ]
  %.not = icmp eq i64 %.0.lcssa, 0
  br i1 %.not, label %35, label %30

30:                                               ; preds = %._crit_edge
  %31 = getelementptr inbounds nuw i8, ptr %0, i64 %.032.lcssa
  %32 = load i8, ptr %31, align 1, !tbaa !10
  %33 = xor i8 %32, -1
  store i8 %33, ptr %4, align 1, !tbaa !10
  call void @H5T__bit_copy(ptr noundef nonnull %31, i64 noundef 0, ptr noundef nonnull %4, i64 noundef 0, i64 noundef %.0.lcssa)
  br label %35

34:                                               ; preds = %13
  call void @H5T__bit_copy(ptr noundef nonnull %14, i64 noundef %6, ptr noundef nonnull %4, i64 noundef %6, i64 noundef %2)
  br label %35

35:                                               ; preds = %34, %30, %._crit_edge, %3
  call void @llvm.lifetime.end.p0(i64 1, ptr nonnull %4) #7
  ret void
}